; Function Attrs: mustprogress uwtable
define noundef nonnull align 8 dereferenceable(25) ptr @_ZN7mitsuba10filesystem4pathaSERKS1_(ptr noundef nonnull returned align 8 dereferenceable(25) %0, ptr noundef nonnull readonly align 8 dereferenceable(25) %1) local_unnamed_addr #0 align 2 {
  %.not.i = icmp eq ptr %0, %1
  br i1 %.not.i, label %_ZNSt3__16vectorINS_12basic_stringIcNS_11char_traitsIcEENS_9allocatorIcEEEENS4_IS6_EEEaSB8ne190000ERKS8_.exit, label %3

3:                                                ; preds = %2
  %4 = load ptr, ptr %1, align 8
  %5 = getelementptr inbounds i8, ptr %1, i64 8
  %6 = load ptr, ptr %5, align 8
  %7 = ptrtoint ptr %6 to i64
  %8 = ptrtoint ptr %4 to i64
  %9 = sub i64 %7, %8
  %10 = sdiv exact i64 %9, 24
  tail call void @_ZNSt3__16vectorINS_12basic_stringIcNS_11char_traitsIcEENS_9allocatorIcEEEENS4_IS6_EEE18__assign_with_sizeB8ne190000IPS6_SA_EEvT_T0_l(ptr noundef nonnull align 8 dereferenceable(24) %0, ptr noundef %4, ptr noundef %6, i64 noundef %10)
  br label %_ZNSt3__16vectorINS_12basic_stringIcNS_11char_traitsIcEENS_9allocatorIcEEEENS4_IS6_EEEaSB8ne190000ERKS8_.exit

_ZNSt3__16vectorINS_12basic_stringIcNS_11char_traitsIcEENS_9allocatorIcEEEENS4_IS6_EEEaSB8ne190000ERKS8_.exit: ; preds = %2, %3
  %11 = getelementptr inbounds i8, ptr %1, i64 24
  %12 = load i8, ptr %11, align 8
  %13 = and i8 %12, 1
  %14 = getelementptr inbounds i8, ptr %0, i64 24
  store i8 %13, ptr %14, align 8
  ret ptr %0
}